; Function Attrs: mustprogress nofree norecurse nounwind memory(read, argmem: none, inaccessiblemem: readwrite) uwtable
define internal fastcc void @_ZL16_expand_stack_toPh(ptr noundef %0) unnamed_addr #8 {
  %2 = alloca ptr, align 8
  %3 = ptrtoint ptr %0 to i64
  %4 = load i64, ptr @_ZN6OSInfo13_vm_page_sizeE, align 8
  %5 = sub i64 0, %4
  %6 = and i64 %5, %3
  %7 = inttoptr i64 %6 to ptr
  %8 = getelementptr i8, ptr %7, i64 %4
  %9 = getelementptr i8, ptr %8, i64 -1
  %10 = icmp ugt ptr %2, %9
  br i1 %10, label %11, label %16

11:                                               ; preds = %1
  %12 = ptrtoint ptr %2 to i64
  %13 = ptrtoint ptr %9 to i64
  %14 = sub i64 %12, %13
  %15 = alloca i8, i64 %14, align 16
  store volatile i8 0, ptr %15, align 16
  br label %16

16:                                               ; preds = %11, %1
  ret void
}